
obj/bootblock.o:     file format elf32-i386


Disassembly of section .text:

00007c00 <start>:

# start address should be 0:7c00, in real mode, the beginning address of the running bootloader
.globl start
start:
.code16                                             # Assemble for 16-bit mode
    cli                                             # Disable interrupts
    7c00:	fa                   	cli    
    cld                                             # String operations increment
    7c01:	fc                   	cld    

    # Set up the important data segment registers (DS, ES, SS).
    xorw %ax, %ax                                   # Segment number zero
    7c02:	31 c0                	xor    %eax,%eax
    movw %ax, %ds                                   # -> Data Segment
    7c04:	8e d8                	mov    %eax,%ds
    movw %ax, %es                                   # -> Extra Segment
    7c06:	8e c0                	mov    %eax,%es
    movw %ax, %ss                                   # -> Stack Segment
    7c08:	8e d0                	mov    %eax,%ss

00007c0a <seta20.1>:
    #  For backwards compatibility with the earliest PCs, physical
    #  address line 20 is tied low, so that addresses higher than
    #  1MB wrap around to zero by default. This code undoes this.
seta20.1:
    # 把0x64端口的内容读到%al，测试buffer是否busy
    inb $0x64, %al                                  # Wait for not busy(8042 input buffer empty).
    7c0a:	e4 64                	in     $0x64,%al
    testb $0x2, %al
    7c0c:	a8 02                	test   $0x2,%al
    jnz seta20.1
    7c0e:	75 fa                	jne    7c0a <seta20.1>

    # 把这个0xd1命令写到0x64端口
    movb $0xd1, %al                                 # 0xd1 -> port 0x64
    7c10:	b0 d1                	mov    $0xd1,%al
    outb %al, $0x64                                 # 0xd1 means: write data to 8042's P2 port
    7c12:	e6 64                	out    %al,$0x64

00007c14 <seta20.2>:

seta20.2:
    # 同上 
    inb $0x64, %al                                  # Wait for not busy(8042 input buffer empty).
    7c14:	e4 64                	in     $0x64,%al
    testb $0x2, %al
    7c16:	a8 02                	test   $0x2,%al
    jnz seta20.2
    7c18:	75 fa                	jne    7c14 <seta20.2>

    # 把0xdf这个命令写入到0x60端口
    movb $0xdf, %al                                 # 0xdf -> port 0x60
    7c1a:	b0 df                	mov    $0xdf,%al
    outb %al, $0x60                                 # 0xdf = 11011111, means set P2's A20 bit(the 1 bit) to 1
    7c1c:	e6 60                	out    %al,$0x60

    # Switch from real to protected mode, using a bootstrap GDT
    # and segment translation that makes virtual addresses
    # identical to physical addresses, so that the
    # effective memory map does not change during the switch.
    lgdt gdtdesc
    7c1e:	0f 01 16             	lgdtl  (%esi)
    7c21:	6c                   	insb   (%dx),%es:(%edi)
    7c22:	7c 0f                	jl     7c33 <protcseg+0x1>
    movl %cr0, %eax
    7c24:	20 c0                	and    %al,%al
    orl $CR0_PE_ON, %eax
    7c26:	66 83 c8 01          	or     $0x1,%ax
    movl %eax, %cr0
    7c2a:	0f 22 c0             	mov    %eax,%cr0

    # Jump to next instruction, but in 32-bit code segment.
    # Switches processor into 32-bit mode.
    ljmp $PROT_MODE_CSEG, $protcseg
    7c2d:	ea                   	.byte 0xea
    7c2e:	32 7c 08 00          	xor    0x0(%eax,%ecx,1),%bh

00007c32 <protcseg>:

.code32                                             # Assemble for 32-bit mode
protcseg:
    # Set up the protected-mode data segment registers
    movw $PROT_MODE_DSEG, %ax                       # Our data segment selector
    7c32:	66 b8 10 00          	mov    $0x10,%ax
    movw %ax, %ds                                   # -> DS: Data Segment
    7c36:	8e d8                	mov    %eax,%ds
    movw %ax, %es                                   # -> ES: Extra Segment
    7c38:	8e c0                	mov    %eax,%es
    movw %ax, %fs                                   # -> FS
    7c3a:	8e e0                	mov    %eax,%fs
    movw %ax, %gs                                   # -> GS
    7c3c:	8e e8                	mov    %eax,%gs
    movw %ax, %ss                                   # -> SS: Stack Segment
    7c3e:	8e d0                	mov    %eax,%ss

    # Set up the stack pointer and call into C. The stack region is from 0--start(0x7c00)
    movl $0x0, %ebp
    7c40:	bd 00 00 00 00       	mov    $0x0,%ebp
    movl $start, %esp
    7c45:	bc 00 7c 00 00       	mov    $0x7c00,%esp
    call bootmain
    7c4a:	e8 c2 00 00 00       	call   7d11 <bootmain>

00007c4f <spin>:

    # If bootmain returns (it shouldn't), loop.
spin:
    jmp spin
    7c4f:	eb fe                	jmp    7c4f <spin>
    7c51:	8d 76 00             	lea    0x0(%esi),%esi

00007c54 <gdt>:
	...
    7c5c:	ff                   	(bad)  
    7c5d:	ff 00                	incl   (%eax)
    7c5f:	00 00                	add    %al,(%eax)
    7c61:	9a cf 00 ff ff 00 00 	lcall  $0x0,$0xffff00cf
    7c68:	00                   	.byte 0x0
    7c69:	92                   	xchg   %eax,%edx
    7c6a:	cf                   	iret   
	...

00007c6c <gdtdesc>:
    7c6c:	17                   	pop    %ss
    7c6d:	00 54 7c 00          	add    %dl,0x0(%esp,%edi,2)
	...

00007c72 <readseg>:
/* *
 * readseg - read @count bytes at @offset from kernel into virtual address @va,
 * might copy more than asked.
 * */
static void
readseg(uintptr_t va, uint32_t count, uint32_t offset) {
    7c72:	55                   	push   %ebp
    7c73:	89 e5                	mov    %esp,%ebp
    7c75:	57                   	push   %edi
    7c76:	56                   	push   %esi
    7c77:	89 c6                	mov    %eax,%esi
    7c79:	53                   	push   %ebx
    uintptr_t end_va = va + count;
    7c7a:	01 d0                	add    %edx,%eax
readseg(uintptr_t va, uint32_t count, uint32_t offset) {
    7c7c:	83 ec 08             	sub    $0x8,%esp
    7c7f:	31 d2                	xor    %edx,%edx
    uintptr_t end_va = va + count;
    7c81:	89 45 ec             	mov    %eax,-0x14(%ebp)
    7c84:	89 c8                	mov    %ecx,%eax
static inline void ltr(uint16_t sel) __attribute__((always_inline));

static inline uint8_t
inb(uint16_t port) {
    uint8_t data;
    asm volatile ("inb %1, %0" : "=a" (data) : "d" (port));
    7c86:	bb f7 01 00 00       	mov    $0x1f7,%ebx
    7c8b:	f7 35 f4 7d 00 00    	divl   0x7df4

    // round down to sector boundary
    va -= offset % SECTSIZE;

    // translate from bytes to sectors; kernel starts at sector 1
    uint32_t secno = (offset / SECTSIZE) + 1;
    7c91:	40                   	inc    %eax
    va -= offset % SECTSIZE;
    7c92:	29 d6                	sub    %edx,%esi
    uint32_t secno = (offset / SECTSIZE) + 1;
    7c94:	89 45 f0             	mov    %eax,-0x10(%ebp)

    // If this is too slow, we could read lots of sectors at a time.
    // We'd write more to memory than asked, but it doesn't matter --
    // we load in increasing order.
    for (; va < end_va; va += SECTSIZE, secno ++) {
    7c97:	3b 75 ec             	cmp    -0x14(%ebp),%esi
    7c9a:	73 6e                	jae    7d0a <readseg+0x98>
    7c9c:	89 da                	mov    %ebx,%edx
    7c9e:	ec                   	in     (%dx),%al
    while ((inb(0x1F7) & 0xC0) != 0x40)
    7c9f:	24 c0                	and    $0xc0,%al
    7ca1:	3c 40                	cmp    $0x40,%al
    7ca3:	75 f7                	jne    7c9c <readseg+0x2a>
            : "memory", "cc");
}

static inline void
outb(uint16_t port, uint8_t data) {
    asm volatile ("outb %0, %1" :: "a" (data), "d" (port));
    7ca5:	ba f2 01 00 00       	mov    $0x1f2,%edx
    7caa:	b0 01                	mov    $0x1,%al
    7cac:	ee                   	out    %al,(%dx)
    7cad:	ba f3 01 00 00       	mov    $0x1f3,%edx
    7cb2:	8a 45 f0             	mov    -0x10(%ebp),%al
    7cb5:	ee                   	out    %al,(%dx)
    outb(0x1F4, (secno >> 8) & 0xFF);
    7cb6:	8b 45 f0             	mov    -0x10(%ebp),%eax
    7cb9:	ba f4 01 00 00       	mov    $0x1f4,%edx
    7cbe:	c1 e8 08             	shr    $0x8,%eax
    7cc1:	ee                   	out    %al,(%dx)
    outb(0x1F5, (secno >> 16) & 0xFF);
    7cc2:	8b 45 f0             	mov    -0x10(%ebp),%eax
    7cc5:	ba f5 01 00 00       	mov    $0x1f5,%edx
    7cca:	c1 e8 10             	shr    $0x10,%eax
    7ccd:	ee                   	out    %al,(%dx)
    outb(0x1F6, ((secno >> 24) & 0xF) | 0xE0);
    7cce:	8b 45 f0             	mov    -0x10(%ebp),%eax
    7cd1:	ba f6 01 00 00       	mov    $0x1f6,%edx
    7cd6:	c1 e8 18             	shr    $0x18,%eax
    7cd9:	24 0f                	and    $0xf,%al
    7cdb:	0c e0                	or     $0xe0,%al
    7cdd:	ee                   	out    %al,(%dx)
    7cde:	b0 20                	mov    $0x20,%al
    7ce0:	89 da                	mov    %ebx,%edx
    7ce2:	ee                   	out    %al,(%dx)
    asm volatile ("inb %1, %0" : "=a" (data) : "d" (port));
    7ce3:	89 da                	mov    %ebx,%edx
    7ce5:	ec                   	in     (%dx),%al
    while ((inb(0x1F7) & 0xC0) != 0x40)
    7ce6:	24 c0                	and    $0xc0,%al
    7ce8:	3c 40                	cmp    $0x40,%al
    7cea:	75 f7                	jne    7ce3 <readseg+0x71>
    insl(0x1F0, dst, SECTSIZE / 4);
    7cec:	8b 0d f4 7d 00 00    	mov    0x7df4,%ecx
    asm volatile (
    7cf2:	89 f7                	mov    %esi,%edi
    7cf4:	ba f0 01 00 00       	mov    $0x1f0,%edx
    7cf9:	c1 e9 02             	shr    $0x2,%ecx
    7cfc:	fc                   	cld    
    7cfd:	f2 6d                	repnz insl (%dx),%es:(%edi)
    for (; va < end_va; va += SECTSIZE, secno ++) {
    7cff:	ff 45 f0             	incl   -0x10(%ebp)
    7d02:	03 35 f4 7d 00 00    	add    0x7df4,%esi
    7d08:	eb 8d                	jmp    7c97 <readseg+0x25>
        readsect((void *)va, secno);
    }
}
    7d0a:	58                   	pop    %eax
    7d0b:	5a                   	pop    %edx
    7d0c:	5b                   	pop    %ebx
    7d0d:	5e                   	pop    %esi
    7d0e:	5f                   	pop    %edi
    7d0f:	5d                   	pop    %ebp
    7d10:	c3                   	ret    

00007d11 <bootmain>:

/* bootmain - the entry of bootloader */
void
bootmain(void) {
    7d11:	55                   	push   %ebp
    // read the 1st page off disk
    readseg((uintptr_t)ELFHDR, SECTSIZE * 8, 0);
    7d12:	a1 f4 7d 00 00       	mov    0x7df4,%eax
    7d17:	31 c9                	xor    %ecx,%ecx
bootmain(void) {
    7d19:	89 e5                	mov    %esp,%ebp
    7d1b:	56                   	push   %esi
    7d1c:	53                   	push   %ebx
    readseg((uintptr_t)ELFHDR, SECTSIZE * 8, 0);
    7d1d:	8d 14 c5 00 00 00 00 	lea    0x0(,%eax,8),%edx
    7d24:	a1 f0 7d 00 00       	mov    0x7df0,%eax
    7d29:	e8 44 ff ff ff       	call   7c72 <readseg>

    // is this a valid ELF?
    if (ELFHDR->e_magic != ELF_MAGIC) {
    7d2e:	a1 f0 7d 00 00       	mov    0x7df0,%eax
    7d33:	81 38 7f 45 4c 46    	cmpl   $0x464c457f,(%eax)
    7d39:	75 39                	jne    7d74 <bootmain+0x63>
    }

    struct proghdr *ph, *eph;

    // load each program segment (ignores ph flags)
    ph = (struct proghdr *)((uintptr_t)ELFHDR + ELFHDR->e_phoff);
    7d3b:	8b 58 1c             	mov    0x1c(%eax),%ebx
    eph = ph + ELFHDR->e_phnum;
    7d3e:	0f b7 70 2c          	movzwl 0x2c(%eax),%esi
    ph = (struct proghdr *)((uintptr_t)ELFHDR + ELFHDR->e_phoff);
    7d42:	01 c3                	add    %eax,%ebx
    eph = ph + ELFHDR->e_phnum;
    7d44:	c1 e6 05             	shl    $0x5,%esi
    7d47:	01 de                	add    %ebx,%esi
    for (; ph < eph; ph ++) {
    7d49:	39 f3                	cmp    %esi,%ebx
    7d4b:	73 18                	jae    7d65 <bootmain+0x54>
        readseg(ph->p_va & 0xFFFFFF, ph->p_memsz, ph->p_offset);
    7d4d:	8b 43 08             	mov    0x8(%ebx),%eax
    for (; ph < eph; ph ++) {
    7d50:	83 c3 20             	add    $0x20,%ebx
        readseg(ph->p_va & 0xFFFFFF, ph->p_memsz, ph->p_offset);
    7d53:	8b 4b e4             	mov    -0x1c(%ebx),%ecx
    7d56:	8b 53 f4             	mov    -0xc(%ebx),%edx
    7d59:	25 ff ff ff 00       	and    $0xffffff,%eax
    7d5e:	e8 0f ff ff ff       	call   7c72 <readseg>
    7d63:	eb e4                	jmp    7d49 <bootmain+0x38>
    }

    // call the entry point from the ELF header
    // note: does not return
    ((void (*)(void))(ELFHDR->e_entry & 0xFFFFFF))();
    7d65:	a1 f0 7d 00 00       	mov    0x7df0,%eax
    7d6a:	8b 40 18             	mov    0x18(%eax),%eax
    7d6d:	25 ff ff ff 00       	and    $0xffffff,%eax
    7d72:	ff d0                	call   *%eax
}

static inline void
outw(uint16_t port, uint16_t data) {
    asm volatile ("outw %0, %1" :: "a" (data), "d" (port));
    7d74:	ba 00 8a ff ff       	mov    $0xffff8a00,%edx
    7d79:	89 d0                	mov    %edx,%eax
    7d7b:	66 ef                	out    %ax,(%dx)
    7d7d:	b8 00 8e ff ff       	mov    $0xffff8e00,%eax
    7d82:	66 ef                	out    %ax,(%dx)
    7d84:	eb fe                	jmp    7d84 <bootmain+0x73>
